Certificate:
    Data:
        Version: 3 (0x2)
        Serial Number: 2 (0x2)
        Signature Algorithm: sha1WithRSAEncryption
        Issuer: DC=org, DC=simple, O=Simple Inc, OU=Simple Signing CA, CN=Simple Signing CA
        Validity
            Not Before: May  6 06:13:35 2022 GMT
            Not After : May  5 06:13:35 2024 GMT
        Subject: DC=org, DC=simple, O=Simple Inc, CN=www.simple.org
        Subject Public Key Info:
            Public Key Algorithm: rsaEncryption
                RSA Public-Key: (2048 bit)
                Modulus:
                    00:b9:5a:23:41:bc:47:ba:e0:81:9b:51:4c:39:c2:
                    fc:38:dd:ac:d6:df:1e:f6:52:da:9b:06:62:07:e6:
                    90:02:1b:12:39:80:17:23:98:a2:19:b0:08:7c:bf:
                    80:f0:73:55:d8:f9:07:f7:c5:28:d6:27:89:79:67:
                    c1:63:d3:e6:7a:b4:1e:ad:01:f3:99:6e:83:a8:b3:
                    51:e1:53:72:92:7c:50:be:a1:92:23:82:39:cb:ba:
                    55:67:ed:09:61:8c:24:4b:be:00:9d:7b:eb:80:1e:
                    fc:86:62:94:70:d7:82:c9:67:7a:60:a8:0f:46:65:
                    dc:d2:49:30:02:42:c1:a8:02:cb:b7:d6:70:16:a2:
                    e9:31:34:e6:34:7d:7d:d7:21:d5:d7:a7:fd:7e:ce:
                    07:08:aa:7b:d6:71:cd:30:d3:e1:94:d1:7e:f5:4e:
                    37:03:80:a8:21:a2:b3:2e:00:08:8b:9b:f0:ac:bc:
                    c2:20:fb:7c:4a:0b:9a:2d:87:98:5e:75:ce:a5:e2:
                    fe:12:47:95:7c:97:b8:f4:3b:86:9b:04:2b:52:c9:
                    63:a0:bd:d6:47:11:da:72:63:07:43:94:4b:4f:8a:
                    a2:a7:83:85:0b:26:17:34:ff:f9:95:00:5e:13:28:
                    cf:21:0c:0c:72:1d:ed:1f:0e:11:56:0b:0d:f8:5f:
                    a6:2b
                Exponent: 65537 (0x10001)
        X509v3 extensions:
            X509v3 Key Usage: critical
                Digital Signature, Key Encipherment
            X509v3 Basic Constraints: 
                CA:FALSE
            X509v3 Extended Key Usage: 
                TLS Web Server Authentication, TLS Web Client Authentication
            X509v3 Subject Key Identifier: 
                BB:98:5B:17:24:75:73:73:23:1C:4D:13:0F:85:43:DF:B1:3B:B0:0D
            X509v3 Authority Key Identifier: 
                keyid:E1:9D:49:9B:38:7B:88:83:79:0A:14:08:6A:56:2C:02:05:77:A6:80

            X509v3 Subject Alternative Name: 
                DNS:www.simple.org
    Signature Algorithm: sha1WithRSAEncryption
         5f:88:0a:a6:9c:32:ea:68:d4:d9:0b:72:0a:29:58:c4:c4:5c:
         7f:2e:44:ef:0e:50:06:7d:e3:5e:16:e1:c3:f1:ea:58:37:ea:
         b7:b7:aa:2e:40:d1:63:79:5c:ee:5f:4a:2a:1b:78:7e:bc:44:
         a2:0b:50:e4:b6:d7:c5:bb:e0:18:80:ba:7f:ab:e9:76:e0:54:
         c1:8d:6d:58:15:6d:79:aa:43:82:f1:26:f4:14:a1:4c:2d:e7:
         54:60:ad:ba:99:0c:c3:4a:d3:8c:6a:f7:cd:4d:8f:ee:18:f5:
         59:82:69:2b:03:17:92:13:f8:e5:8b:ad:7c:b7:96:51:32:bd:
         d7:fd:56:f7:19:09:b0:17:ec:f7:48:d5:be:96:1c:e4:f6:ad:
         e7:1a:d4:2f:71:62:cb:a3:b0:83:2e:68:3e:a2:b1:7f:65:5f:
         c2:8b:75:24:11:d5:c3:88:68:04:9b:1b:f9:3f:fb:dc:8b:57:
         b8:6c:ec:b3:7f:db:76:e3:3d:7a:9e:25:3d:fc:01:5d:c7:43:
         db:8b:07:01:fe:6a:b9:9f:ab:50:4a:d7:bb:27:c5:00:bd:5a:
         50:28:3f:0f:d6:b7:24:96:e7:bb:29:fa:3d:99:1f:ba:71:a3:
         00:92:00:52:47:91:6c:70:fd:3a:72:d1:1b:65:d1:9a:4e:38:
         36:86:0b:e3
-----BEGIN CERTIFICATE-----
MIID6TCCAtGgAwIBAgIBAjANBgkqhkiG9w0BAQUFADB6MRMwEQYKCZImiZPyLGQB
GRYDb3JnMRYwFAYKCZImiZPyLGQBGRYGc2ltcGxlMRMwEQYDVQQKDApTaW1wbGUg
SW5jMRowGAYDVQQLDBFTaW1wbGUgU2lnbmluZyBDQTEaMBgGA1UEAwwRU2ltcGxl
IFNpZ25pbmcgQ0EwHhcNMjIwNTA2MDYxMzM1WhcNMjQwNTA1MDYxMzM1WjBbMRMw
EQYKCZImiZPyLGQBGRYDb3JnMRYwFAYKCZImiZPyLGQBGRYGc2ltcGxlMRMwEQYD
VQQKDApTaW1wbGUgSW5jMRcwFQYDVQQDDA53d3cuc2ltcGxlLm9yZzCCASIwDQYJ
KoZIhvcNAQEBBQADggEPADCCAQoCggEBALlaI0G8R7rggZtRTDnC/DjdrNbfHvZS
2psGYgfmkAIbEjmAFyOYohmwCHy/gPBzVdj5B/fFKNYniXlnwWPT5nq0Hq0B85lu
g6izUeFTcpJ8UL6hkiOCOcu6VWftCWGMJEu+AJ1764Ae/IZilHDXgslnemCoD0Zl
3NJJMAJCwagCy7fWcBai6TE05jR9fdch1den/X7OBwiqe9ZxzTDT4ZTRfvVONwOA
qCGisy4ACIub8Ky8wiD7fEoLmi2HmF51zqXi/hJHlXyXuPQ7hpsEK1LJY6C91kcR
2nJjB0OUS0+KoqeDhQsmFzT/+ZUAXhMozyEMDHId7R8OEVYLDfhfpisCAwEAAaOB
mDCBlTAOBgNVHQ8BAf8EBAMCBaAwCQYDVR0TBAIwADAdBgNVHSUEFjAUBggrBgEF
BQcDAQYIKwYBBQUHAwIwHQYDVR0OBBYEFLuYWxckdXNzIxxNEw+FQ9+xO7ANMB8G
A1UdIwQYMBaAFOGdSZs4e4iDeQoUCGpWLAIFd6aAMBkGA1UdEQQSMBCCDnd3dy5z
aW1wbGUub3JnMA0GCSqGSIb3DQEBBQUAA4IBAQBfiAqmnDLqaNTZC3IKKVjExFx/
LkTvDlAGfeNeFuHD8epYN+q3t6ouQNFjeVzuX0oqG3h+vESiC1DkttfFu+AYgLp/
q+l24FTBjW1YFW15qkOC8Sb0FKFMLedUYK26mQzDStOMavfNTY/uGPVZgmkrAxeS
E/jli618t5ZRMr3X/Vb3GQmwF+z3SNW+lhzk9q3nGtQvcWLLo7CDLmg+orF/ZV/C
i3UkEdXDiGgEmxv5P/vci1e4bOyzf9t24z16niU9/AFdx0PbiwcB/mq5n6tQSte7
J8UAvVpQKD8P1rcklue7Kfo9mR+6caMAkgBSR5FscP06ctEbZdGaTjg2hgvj
-----END CERTIFICATE-----
