Certificate:
    Data:
        Version: 3 (0x2)
        Serial Number: 2 (0x2)
        Signature Algorithm: sha1WithRSAEncryption
        Issuer: DC=org, DC=simple, O=Simple Inc, OU=Simple Signing CA, CN=Simple Signing CA
        Validity
            Not Before: May  6 07:20:41 2022 GMT
            Not After : May  5 07:20:41 2024 GMT
        Subject: DC=org, DC=simple, O=Simple Inc, CN=www.simple.org
        Subject Public Key Info:
            Public Key Algorithm: rsaEncryption
                RSA Public-Key: (2048 bit)
                Modulus:
                    00:a7:21:ee:b7:29:16:b1:bb:6c:14:19:0d:8f:ed:
                    3a:1b:44:18:48:49:a2:12:c0:36:a1:35:12:00:92:
                    0f:6b:0f:91:99:2d:57:8c:fe:e3:0d:3d:f2:77:34:
                    3c:6c:b4:b0:3e:d8:9c:e6:fd:a8:73:40:92:79:08:
                    7a:76:2b:79:8d:ba:d4:27:cb:da:ba:0f:21:32:6e:
                    7c:26:9f:cf:54:0c:23:f2:16:4b:da:0a:da:8b:d8:
                    02:c1:5c:50:0a:2c:c2:f8:18:41:30:38:a5:a2:61:
                    85:fa:ce:74:30:29:30:21:c0:a3:eb:7b:cc:7d:b1:
                    0f:ac:fa:e7:e5:3b:90:30:18:11:13:df:b5:63:08:
                    da:4c:5a:43:7c:42:7c:90:10:11:50:8b:e7:da:6f:
                    1a:5c:d5:3c:8c:9e:3d:82:3b:3f:94:de:06:dd:85:
                    25:a0:16:e6:df:da:e9:10:fe:38:8a:4a:40:29:0d:
                    6d:2a:63:1f:c4:59:aa:2c:29:d9:8d:29:e4:bb:4d:
                    b1:54:84:48:1a:31:5a:34:ce:ac:e4:b2:5a:fe:1a:
                    04:89:f2:2e:23:68:a3:85:73:85:f6:ee:f1:b5:62:
                    d4:d9:43:c3:6d:ed:a5:dc:a9:9c:6d:bf:a8:93:33:
                    ef:37:c6:9e:ba:50:7f:a6:1b:e9:d7:1f:3f:99:f2:
                    ff:13
                Exponent: 65537 (0x10001)
        X509v3 extensions:
            X509v3 Key Usage: critical
                Digital Signature, Key Encipherment
            X509v3 Basic Constraints: 
                CA:FALSE
            X509v3 Extended Key Usage: 
                TLS Web Server Authentication, TLS Web Client Authentication
            X509v3 Subject Key Identifier: 
                18:54:DF:EF:59:9A:F3:23:95:28:47:CC:9A:D7:4F:0C:D9:66:F6:F6
            X509v3 Authority Key Identifier: 
                keyid:04:C4:5A:60:39:34:40:7F:F8:CB:73:78:B8:CB:65:6D:86:1F:D5:E2

            X509v3 Subject Alternative Name: 
                DNS:www.simple.org
    Signature Algorithm: sha1WithRSAEncryption
         5c:a7:c7:77:8d:a8:13:c6:ac:b2:c9:25:ea:db:0c:ce:f7:ab:
         c6:57:78:0d:33:ef:2d:22:61:d7:95:6e:36:04:63:80:cd:a7:
         f9:63:7a:99:92:fe:06:9f:75:51:77:cb:67:45:ec:af:71:b4:
         a2:f0:fc:5b:50:50:75:0a:59:89:ca:a0:c5:3f:fa:92:bf:40:
         b1:62:46:b5:70:57:3c:6c:59:4a:9e:fe:5f:43:48:63:9e:d9:
         e7:a8:1f:c4:b4:48:21:3f:aa:99:a0:68:41:31:46:d2:d8:9e:
         e0:f1:a6:dc:3d:c2:e9:4e:c0:ea:7a:25:98:7e:b0:71:c6:8d:
         5a:89:f4:20:b3:c1:8a:11:c2:11:e8:8c:0e:22:81:d8:8d:9d:
         31:46:e9:85:7b:19:fd:44:d8:39:7c:61:06:15:59:9d:ce:08:
         16:2a:68:4d:7d:33:25:e3:6f:aa:ec:ea:df:0f:78:af:7e:4f:
         77:cf:bc:8a:b9:cc:ef:ef:fe:43:f0:55:ea:40:ae:c8:5f:52:
         11:ea:0d:34:11:f1:1b:8d:e7:99:20:87:0e:75:b1:98:f0:50:
         4e:fd:74:b7:23:bb:85:c5:68:15:72:67:ef:24:88:be:44:e8:
         c1:c8:ef:9f:a1:97:37:f8:ee:39:c1:92:08:d5:cc:ef:ce:14:
         ea:92:7e:b5
-----BEGIN CERTIFICATE-----
MIID6TCCAtGgAwIBAgIBAjANBgkqhkiG9w0BAQUFADB6MRMwEQYKCZImiZPyLGQB
GRYDb3JnMRYwFAYKCZImiZPyLGQBGRYGc2ltcGxlMRMwEQYDVQQKDApTaW1wbGUg
SW5jMRowGAYDVQQLDBFTaW1wbGUgU2lnbmluZyBDQTEaMBgGA1UEAwwRU2ltcGxl
IFNpZ25pbmcgQ0EwHhcNMjIwNTA2MDcyMDQxWhcNMjQwNTA1MDcyMDQxWjBbMRMw
EQYKCZImiZPyLGQBGRYDb3JnMRYwFAYKCZImiZPyLGQBGRYGc2ltcGxlMRMwEQYD
VQQKDApTaW1wbGUgSW5jMRcwFQYDVQQDDA53d3cuc2ltcGxlLm9yZzCCASIwDQYJ
KoZIhvcNAQEBBQADggEPADCCAQoCggEBAKch7rcpFrG7bBQZDY/tOhtEGEhJohLA
NqE1EgCSD2sPkZktV4z+4w098nc0PGy0sD7YnOb9qHNAknkIenYreY261CfL2roP
ITJufCafz1QMI/IWS9oK2ovYAsFcUAoswvgYQTA4paJhhfrOdDApMCHAo+t7zH2x
D6z65+U7kDAYERPftWMI2kxaQ3xCfJAQEVCL59pvGlzVPIyePYI7P5TeBt2FJaAW
5t/a6RD+OIpKQCkNbSpjH8RZqiwp2Y0p5LtNsVSESBoxWjTOrOSyWv4aBInyLiNo
o4Vzhfbu8bVi1NlDw23tpdypnG2/qJMz7zfGnrpQf6Yb6dcfP5ny/xMCAwEAAaOB
mDCBlTAOBgNVHQ8BAf8EBAMCBaAwCQYDVR0TBAIwADAdBgNVHSUEFjAUBggrBgEF
BQcDAQYIKwYBBQUHAwIwHQYDVR0OBBYEFBhU3+9ZmvMjlShHzJrXTwzZZvb2MB8G
A1UdIwQYMBaAFATEWmA5NEB/+MtzeLjLZW2GH9XiMBkGA1UdEQQSMBCCDnd3dy5z
aW1wbGUub3JnMA0GCSqGSIb3DQEBBQUAA4IBAQBcp8d3jagTxqyyySXq2wzO96vG
V3gNM+8tImHXlW42BGOAzaf5Y3qZkv4Gn3VRd8tnReyvcbSi8PxbUFB1ClmJyqDF
P/qSv0CxYka1cFc8bFlKnv5fQ0hjntnnqB/EtEghP6qZoGhBMUbS2J7g8abcPcLp
TsDqeiWYfrBxxo1aifQgs8GKEcIR6IwOIoHYjZ0xRumFexn9RNg5fGEGFVmdzggW
KmhNfTMl42+q7OrfD3ivfk93z7yKuczv7/5D8FXqQK7IX1IR6g00EfEbjeeZIIcO
dbGY8FBO/XS3I7uFxWgVcmfvJIi+ROjByO+foZc3+O45wZII1czvzhTqkn61
-----END CERTIFICATE-----
