-----BEGIN ENCRYPTED PRIVATE KEY-----
MIIFHDBOBgkqhkiG9w0BBQ0wQTApBgkqhkiG9w0BBQwwHAQInLnFZaxiI60CAggA
MAwGCCqGSIb3DQIJBQAwFAYIKoZIhvcNAwcECHH+RATEXHhDBIIEyPQm9IN61RuM
J17LILTdd629Ey7XWGTsEB3p8GXxBANuvBBEur/ZRJKhB2L+h2xByIMGyIo2KMz+
LJwREByeSPlj/Iwy6jsSZ+aJVxSBKie7mME8LcLcjAfahDgKOgNOeKnywJaFg19A
a1zOmF2ROXUw3XcJo+t5sEWMnUAVU4eQhq8SxJ3ZeaaJ/mLGATLQ94um1iLRds+a
Yios0Jfg/RTXemt5pWzJozwrKewvn7P+a/XdNjt30/1VjZaEOD8QMhF0ptddlkqf
sgHtej19mTnKydmAqHjhi9CIbvitwP0iAql8B3zvMRR6Bof3VIwi4HMERPFOqS94
Gva46/BnFzwlO4Y8ve6jNqIQJcz8ypTJgZrJP/iZgdH40VBX/NHVeWCfnLISJmPy
bh/f48QsV0YzxwTTgGJHCWk5QJ5SeuoDxgagBxUieR+JWVVecdZKi6WOT+Nw5/YV
UxbcNML2Et04nucg2L95m4LaIa6qGW0OQSdspUtinnfYHdsyCdCOxV5/94xH16z1
kWya5KMw9JVzJNH1g92iJ8gz8O83GYL3cNIYiuKWl+LM/1azfpZXKx3X1rKBFZLz
JeLTHsvdHU7xMpppZpObLUNcBB8EGkd50+5RG5HIC7dPQx1UcF6+YdPNfHqjY2gX
teEPNfMNoGArJ2X5Q+uhlEvP73tqqdxpAE+YM0jrffQuzqcmte+z8AuMZxWDXUTe
lx7rRJ8qZt4t+GTrC8I5NsYuRtxGxqUmSAplsitzLAhQxpsQBf8oB6gYSkGMqaFB
1JekGVRpMtYBPtYfouawmQxcN1ABJHCZRBUsaSLsm15vkxU3dPWmlER7mlRhjaFN
Zt5qAvZr/rZ5RVDZ5HyKjXsoMn/mNMzHqUYTXPjvI3cvPd32BFqJnSriQVJnX4Et
VQaMuRUQIUmaQb3hHF3LdqeCPQse5T/KsBFJQiDNCQD7Tw6P/KLZgLl7kjQQV009
zL/6QJpBZTL1/q+lBZYBsasGNHh7/AklIlLb1Y0o6FD9l9BapMLh2a6K8bdLydc7
qLl2wAp2y/4D9xmgoeWmuhC0khbBFTh0JOHRfm88eniJgXYtaOy+TceJKuGoycQg
L/JbXfMIBjGfGk9VdcH5ngOrXKXUqWwsNzP3RUv+qGibfi9iFrf2VweoGDh8KRCS
qw/XF9QB9vizFacEr3CThzxtcCNyUwPkxpEHJCY9DFqQ8KNlVvpQXLyb4LbVqO+p
Y3e+xIKnaMLVI5MsVYmPr+d6gDazgMaINfEqdPu2y3f2XDreYu2IYDuui4C/32/j
NFAoOR4eY3QsI0nbJBD04Poa6/OJvst2EDmNLJU74tfZCb1HiBF16z0/BUmMZrm7
9HuMVbpIu4HMS2ZSGs7jibz7YYf3VdKw0YfozWCIACSkBVQ7R900z+KFu5+TdU4V
oMRdDdmthPjkRBUVY/6TS3OnL2cOHaROfsVNZhqBjy31K4RwIP4TMSesPDQTGOcZ
+81zZ00IbL+rg00UJcCoOP9Ca+IF40nvSn6vil7zJMtclUQjO4csFQ3J5Dge3Z0L
sPcU68r1nLUh2r1bzhrPkx5HiWJd78y5znZ7L6x03ySiIxgAAgQ2KZzngIOjU1sn
Wkm6x/eEuWsEgAkfNFaNDQ==
-----END ENCRYPTED PRIVATE KEY-----
Certificate:
    Data:
        Version: 3 (0x2)
        Serial Number: 1 (0x1)
        Signature Algorithm: sha1WithRSAEncryption
        Issuer: DC=org, DC=simple, O=Simple Inc, OU=Simple Signing CA, CN=Simple Signing CA
        Validity
            Not Before: May  6 06:11:58 2022 GMT
            Not After : May  5 06:11:58 2024 GMT
        Subject: DC=org, DC=simple, O=Simple Inc, CN=Fred Flintstone
        Subject Public Key Info:
            Public Key Algorithm: rsaEncryption
                RSA Public-Key: (2048 bit)
                Modulus:
                    00:d5:b4:d3:b2:63:7d:7d:45:52:63:4a:54:34:19:
                    1b:f2:93:86:ea:9a:93:ef:26:ee:8c:46:7c:5f:23:
                    73:a9:71:fa:9c:cc:f4:23:19:b1:86:61:58:15:f9:
                    c2:df:e9:7f:e0:b1:0b:82:09:2e:64:97:b0:ac:ea:
                    4a:31:c5:ac:05:c1:90:4f:a1:da:26:f5:3a:38:f4:
                    0d:d5:4d:a9:1b:32:39:ad:4c:e7:4d:f3:28:1e:74:
                    10:d5:f3:5c:f7:78:df:f3:cc:32:ff:42:ff:b8:6e:
                    57:36:59:dd:77:c4:95:e0:e7:b1:49:53:57:41:21:
                    88:98:a6:74:6a:f9:9d:f8:47:50:24:44:4c:6f:e7:
                    65:4f:e4:d1:23:ab:ef:b9:39:af:66:91:dd:8d:ac:
                    8d:c0:a6:b4:e7:52:8c:2f:a0:29:46:43:2f:cb:34:
                    75:38:5f:2b:1b:7a:49:e5:19:bd:b4:80:89:34:c1:
                    3b:36:33:de:00:99:f2:31:09:a2:e0:78:cb:45:6e:
                    ff:53:f2:59:9a:6e:6f:7a:77:82:5c:68:83:8e:4b:
                    51:2d:8a:37:5a:44:3d:d6:b7:73:30:ac:0e:da:da:
                    00:61:99:1c:9b:c9:71:7d:88:22:eb:cc:06:a3:87:
                    37:e0:00:fc:de:a6:60:15:ec:0f:6c:3e:6c:94:33:
                    4a:0b
                Exponent: 65537 (0x10001)
        X509v3 extensions:
            X509v3 Key Usage: critical
                Digital Signature, Key Encipherment
            X509v3 Basic Constraints: 
                CA:FALSE
            X509v3 Extended Key Usage: 
                E-mail Protection, TLS Web Client Authentication
            X509v3 Subject Key Identifier: 
                58:4E:63:2C:64:15:F9:FC:13:5F:F9:78:E6:45:90:82:5F:AF:49:59
            X509v3 Authority Key Identifier: 
                keyid:E1:9D:49:9B:38:7B:88:83:79:0A:14:08:6A:56:2C:02:05:77:A6:80

            X509v3 Subject Alternative Name: 
                email:fred@simple.org
    Signature Algorithm: sha1WithRSAEncryption
         08:13:3c:f8:1c:21:5a:f4:d1:26:40:e4:6b:12:e3:06:de:c3:
         fa:ac:28:bd:34:7c:bc:00:4b:4b:ef:c3:32:b6:1d:1b:9e:9f:
         6f:4d:0d:8d:ec:ad:9d:dd:9b:89:7b:a6:97:53:34:f1:53:d3:
         7d:6a:e2:15:43:88:bf:d0:8d:6e:28:63:31:85:19:23:a4:5a:
         7e:47:a8:19:0a:a1:32:4d:0e:e7:5b:09:82:e4:b2:2c:3c:c3:
         f1:5b:13:2f:84:18:f2:b4:b4:fc:20:ba:84:3f:2c:79:af:51:
         ea:88:1e:c5:4a:e1:c1:8f:84:0b:af:df:3a:38:bf:53:cc:23:
         a2:a2:91:33:41:71:5c:e4:f2:9f:c6:94:88:ed:32:ac:71:04:
         05:59:26:e3:30:ae:39:14:04:af:46:9e:ed:15:f5:62:2a:a2:
         d6:fb:94:9a:9f:ed:38:37:d8:73:4e:17:6f:a0:0b:51:77:7f:
         ec:7a:81:6f:51:b3:d7:42:cb:04:98:1b:da:98:4c:73:7e:81:
         ad:17:8d:5a:46:b4:da:db:6e:1b:86:b6:ce:a7:7d:e0:bc:cd:
         9f:ec:2d:2f:74:fa:27:a8:63:f9:62:9a:2a:f9:bd:cd:e2:7c:
         f1:8e:58:cd:b4:3a:22:d5:f4:c2:7d:6b:b1:46:57:79:84:6b:
         ea:11:31:c2
-----BEGIN CERTIFICATE-----
MIID6zCCAtOgAwIBAgIBATANBgkqhkiG9w0BAQUFADB6MRMwEQYKCZImiZPyLGQB
GRYDb3JnMRYwFAYKCZImiZPyLGQBGRYGc2ltcGxlMRMwEQYDVQQKDApTaW1wbGUg
SW5jMRowGAYDVQQLDBFTaW1wbGUgU2lnbmluZyBDQTEaMBgGA1UEAwwRU2ltcGxl
IFNpZ25pbmcgQ0EwHhcNMjIwNTA2MDYxMTU4WhcNMjQwNTA1MDYxMTU4WjBcMRMw
EQYKCZImiZPyLGQBGRYDb3JnMRYwFAYKCZImiZPyLGQBGRYGc2ltcGxlMRMwEQYD
VQQKDApTaW1wbGUgSW5jMRgwFgYDVQQDDA9GcmVkIEZsaW50c3RvbmUwggEiMA0G
CSqGSIb3DQEBAQUAA4IBDwAwggEKAoIBAQDVtNOyY319RVJjSlQ0GRvyk4bqmpPv
Ju6MRnxfI3OpcfqczPQjGbGGYVgV+cLf6X/gsQuCCS5kl7Cs6koxxawFwZBPodom
9To49A3VTakbMjmtTOdN8ygedBDV81z3eN/zzDL/Qv+4blc2Wd13xJXg57FJU1dB
IYiYpnRq+Z34R1AkRExv52VP5NEjq++5Oa9mkd2NrI3AprTnUowvoClGQy/LNHU4
XysbeknlGb20gIk0wTs2M94AmfIxCaLgeMtFbv9T8lmabm96d4JcaIOOS1Etijda
RD3Wt3MwrA7a2gBhmRybyXF9iCLrzAajhzfgAPzepmAV7A9sPmyUM0oLAgMBAAGj
gZkwgZYwDgYDVR0PAQH/BAQDAgWgMAkGA1UdEwQCMAAwHQYDVR0lBBYwFAYIKwYB
BQUHAwQGCCsGAQUFBwMCMB0GA1UdDgQWBBRYTmMsZBX5/BNf+XjmRZCCX69JWTAf
BgNVHSMEGDAWgBThnUmbOHuIg3kKFAhqViwCBXemgDAaBgNVHREEEzARgQ9mcmVk
QHNpbXBsZS5vcmcwDQYJKoZIhvcNAQEFBQADggEBAAgTPPgcIVr00SZA5GsS4wbe
w/qsKL00fLwAS0vvwzK2HRuen29NDY3srZ3dm4l7ppdTNPFT031q4hVDiL/QjW4o
YzGFGSOkWn5HqBkKoTJNDudbCYLksiw8w/FbEy+EGPK0tPwguoQ/LHmvUeqIHsVK
4cGPhAuv3zo4v1PMI6KikTNBcVzk8p/GlIjtMqxxBAVZJuMwrjkUBK9Gnu0V9WIq
otb7lJqf7Tg32HNOF2+gC1F3f+x6gW9Rs9dCywSYG9qYTHN+ga0XjVpGtNrbbhuG
ts6nfeC8zZ/sLS90+ieoY/limir5vc3ifPGOWM20OiLV9MJ9a7FGV3mEa+oRMcI=
-----END CERTIFICATE-----
