Certificate:
    Data:
        Version: 3 (0x2)
        Serial Number: 1 (0x1)
        Signature Algorithm: sha1WithRSAEncryption
        Issuer: DC=org, DC=simple, O=Simple Inc, OU=Simple Root CA, CN=Simple Root CA
        Validity
            Not Before: May  6 06:04:24 2022 GMT
            Not After : May  5 06:04:24 2032 GMT
        Subject: DC=org, DC=simple, O=Simple Inc, OU=Simple Root CA, CN=Simple Root CA
        Subject Public Key Info:
            Public Key Algorithm: rsaEncryption
                RSA Public-Key: (2048 bit)
                Modulus:
                    00:c4:9f:1d:db:aa:35:83:bd:94:2c:84:a6:3b:4c:
                    77:f6:d3:a2:47:56:e4:7f:a2:0e:65:3e:1b:b7:a4:
                    cd:6d:c9:66:d1:f5:7b:1b:82:6b:77:9d:33:f5:10:
                    ac:66:2e:88:d2:7c:4b:9e:03:69:fa:2c:cc:be:1e:
                    92:e4:58:ac:c3:c5:10:ed:04:dc:a5:02:e7:0e:80:
                    4c:5d:23:23:42:ae:3d:f9:ce:34:26:1e:77:3a:10:
                    79:fb:69:d3:a7:12:61:a7:64:f9:73:05:84:96:93:
                    0b:7a:02:c1:34:3c:26:7f:02:7f:7b:15:54:fc:41:
                    1d:cf:82:aa:bd:52:a6:04:c6:a8:10:e7:20:be:43:
                    df:b7:45:ce:ad:cc:4f:de:b4:1e:c2:89:d3:83:ec:
                    09:c5:33:56:16:e2:c4:44:d8:78:e9:dd:85:78:be:
                    5d:6b:ec:ef:26:b2:af:5f:93:4e:4f:e4:f8:56:31:
                    54:90:8d:67:e3:79:a3:96:fe:74:38:c7:ee:52:5e:
                    ec:fd:ea:c7:88:f5:1b:ac:68:20:e9:59:c1:71:a2:
                    1b:90:c8:a9:f2:25:46:35:6a:84:34:50:15:9d:31:
                    11:48:7f:a9:7d:0f:f5:fe:3c:1f:38:67:f2:d7:bf:
                    86:91:8d:eb:9f:5e:77:3d:da:73:1b:5b:c4:30:1f:
                    8f:33
                Exponent: 65537 (0x10001)
        X509v3 extensions:
            X509v3 Key Usage: critical
                Certificate Sign, CRL Sign
            X509v3 Basic Constraints: critical
                CA:TRUE
            X509v3 Subject Key Identifier: 
                C8:B0:0A:B5:87:92:D8:C5:9F:D4:8E:E7:22:40:9F:61:0D:E7:A4:C8
            X509v3 Authority Key Identifier: 
                keyid:C8:B0:0A:B5:87:92:D8:C5:9F:D4:8E:E7:22:40:9F:61:0D:E7:A4:C8

    Signature Algorithm: sha1WithRSAEncryption
         a7:02:0c:ba:16:1c:c1:1c:27:64:fd:50:36:ad:b1:6d:55:db:
         e8:d3:7b:20:e4:4d:79:55:93:cb:3d:d3:07:81:06:40:98:94:
         75:1a:ff:2a:4b:50:94:5e:e9:9c:37:36:74:f6:24:d7:0f:4f:
         1e:95:d8:b1:af:56:62:94:82:72:e0:ed:11:4b:4f:39:73:60:
         e8:6f:1c:88:0a:78:74:e0:87:01:48:a6:7a:c5:94:e4:60:8d:
         5a:e3:46:32:38:a2:ff:03:aa:f8:2f:b8:b4:54:bd:fe:73:38:
         03:7a:50:f6:b1:44:e7:72:7e:eb:9b:bd:79:3f:ed:bd:3c:d9:
         47:61:47:04:18:63:3e:d3:06:b8:21:3e:6c:65:e0:a4:34:8a:
         84:4f:0a:f2:ac:ea:0c:29:e4:51:d5:b2:b2:f8:6a:fa:60:a7:
         62:91:ca:ae:e1:84:2f:88:86:ed:44:98:1e:cb:b9:69:43:64:
         85:b6:8c:c9:33:df:85:0c:57:e5:eb:49:90:91:15:eb:5b:45:
         d5:df:5e:39:0a:1b:44:e1:fc:6f:c2:a5:81:e6:88:78:ac:f6:
         94:62:5f:4c:f6:0a:b8:dd:ed:09:7f:2a:d9:31:ad:aa:94:d9:
         7c:98:64:d8:ed:cb:d8:3f:75:9e:33:2d:71:48:1b:29:41:47:
         c5:0e:ae:82
-----BEGIN CERTIFICATE-----
MIIDxjCCAq6gAwIBAgIBATANBgkqhkiG9w0BAQUFADB0MRMwEQYKCZImiZPyLGQB
GRYDb3JnMRYwFAYKCZImiZPyLGQBGRYGc2ltcGxlMRMwEQYDVQQKDApTaW1wbGUg
SW5jMRcwFQYDVQQLDA5TaW1wbGUgUm9vdCBDQTEXMBUGA1UEAwwOU2ltcGxlIFJv
b3QgQ0EwHhcNMjIwNTA2MDYwNDI0WhcNMzIwNTA1MDYwNDI0WjB0MRMwEQYKCZIm
iZPyLGQBGRYDb3JnMRYwFAYKCZImiZPyLGQBGRYGc2ltcGxlMRMwEQYDVQQKDApT
aW1wbGUgSW5jMRcwFQYDVQQLDA5TaW1wbGUgUm9vdCBDQTEXMBUGA1UEAwwOU2lt
cGxlIFJvb3QgQ0EwggEiMA0GCSqGSIb3DQEBAQUAA4IBDwAwggEKAoIBAQDEnx3b
qjWDvZQshKY7THf206JHVuR/og5lPhu3pM1tyWbR9Xsbgmt3nTP1EKxmLojSfEue
A2n6LMy+HpLkWKzDxRDtBNylAucOgExdIyNCrj35zjQmHnc6EHn7adOnEmGnZPlz
BYSWkwt6AsE0PCZ/An97FVT8QR3Pgqq9UqYExqgQ5yC+Q9+3Rc6tzE/etB7CidOD
7AnFM1YW4sRE2Hjp3YV4vl1r7O8msq9fk05P5PhWMVSQjWfjeaOW/nQ4x+5SXuz9
6seI9RusaCDpWcFxohuQyKnyJUY1aoQ0UBWdMRFIf6l9D/X+PB84Z/LXv4aRjeuf
Xnc92nMbW8QwH48zAgMBAAGjYzBhMA4GA1UdDwEB/wQEAwIBBjAPBgNVHRMBAf8E
BTADAQH/MB0GA1UdDgQWBBTIsAq1h5LYxZ/UjuciQJ9hDeekyDAfBgNVHSMEGDAW
gBTIsAq1h5LYxZ/UjuciQJ9hDeekyDANBgkqhkiG9w0BAQUFAAOCAQEApwIMuhYc
wRwnZP1QNq2xbVXb6NN7IORNeVWTyz3TB4EGQJiUdRr/KktQlF7pnDc2dPYk1w9P
HpXYsa9WYpSCcuDtEUtPOXNg6G8ciAp4dOCHAUimesWU5GCNWuNGMjii/wOq+C+4
tFS9/nM4A3pQ9rFE53J+65u9eT/tvTzZR2FHBBhjPtMGuCE+bGXgpDSKhE8K8qzq
DCnkUdWysvhq+mCnYpHKruGEL4iG7USYHsu5aUNkhbaMyTPfhQxX5etJkJEV61tF
1d9eOQobROH8b8KlgeaIeKz2lGJfTPYKuN3tCX8q2TGtqpTZfJhk2O3L2D91njMt
cUgbKUFHxQ6ugg==
-----END CERTIFICATE-----
