Certificate:
    Data:
        Version: 3 (0x2)
        Serial Number: 3 (0x3)
        Signature Algorithm: sha1WithRSAEncryption
        Issuer: DC=org, DC=simple, O=Simple Inc, OU=Simple Signing CA, CN=Simple Signing CA
        Validity
            Not Before: May  6 06:39:11 2022 GMT
            Not After : May  5 06:39:11 2024 GMT
        Subject: DC=org, DC=simple, O=Simple Inc, CN=www.simple.org
        Subject Public Key Info:
            Public Key Algorithm: rsaEncryption
                RSA Public-Key: (2048 bit)
                Modulus:
                    00:b9:5a:23:41:bc:47:ba:e0:81:9b:51:4c:39:c2:
                    fc:38:dd:ac:d6:df:1e:f6:52:da:9b:06:62:07:e6:
                    90:02:1b:12:39:80:17:23:98:a2:19:b0:08:7c:bf:
                    80:f0:73:55:d8:f9:07:f7:c5:28:d6:27:89:79:67:
                    c1:63:d3:e6:7a:b4:1e:ad:01:f3:99:6e:83:a8:b3:
                    51:e1:53:72:92:7c:50:be:a1:92:23:82:39:cb:ba:
                    55:67:ed:09:61:8c:24:4b:be:00:9d:7b:eb:80:1e:
                    fc:86:62:94:70:d7:82:c9:67:7a:60:a8:0f:46:65:
                    dc:d2:49:30:02:42:c1:a8:02:cb:b7:d6:70:16:a2:
                    e9:31:34:e6:34:7d:7d:d7:21:d5:d7:a7:fd:7e:ce:
                    07:08:aa:7b:d6:71:cd:30:d3:e1:94:d1:7e:f5:4e:
                    37:03:80:a8:21:a2:b3:2e:00:08:8b:9b:f0:ac:bc:
                    c2:20:fb:7c:4a:0b:9a:2d:87:98:5e:75:ce:a5:e2:
                    fe:12:47:95:7c:97:b8:f4:3b:86:9b:04:2b:52:c9:
                    63:a0:bd:d6:47:11:da:72:63:07:43:94:4b:4f:8a:
                    a2:a7:83:85:0b:26:17:34:ff:f9:95:00:5e:13:28:
                    cf:21:0c:0c:72:1d:ed:1f:0e:11:56:0b:0d:f8:5f:
                    a6:2b
                Exponent: 65537 (0x10001)
        X509v3 extensions:
            X509v3 Key Usage: critical
                Digital Signature, Key Encipherment
            X509v3 Basic Constraints: 
                CA:FALSE
            X509v3 Extended Key Usage: 
                TLS Web Server Authentication, TLS Web Client Authentication
            X509v3 Subject Key Identifier: 
                BB:98:5B:17:24:75:73:73:23:1C:4D:13:0F:85:43:DF:B1:3B:B0:0D
            X509v3 Authority Key Identifier: 
                keyid:E1:9D:49:9B:38:7B:88:83:79:0A:14:08:6A:56:2C:02:05:77:A6:80

            X509v3 Subject Alternative Name: 
                DNS:www.simple.org
    Signature Algorithm: sha1WithRSAEncryption
         63:e5:81:56:58:74:fb:2c:fa:2a:f2:28:83:70:39:8f:2c:86:
         01:c0:f9:85:59:30:ce:e1:aa:b7:d7:61:39:98:8f:1e:01:a2:
         99:28:14:b1:0e:54:6a:5b:4b:82:8a:17:a5:79:af:72:3f:48:
         3b:43:dc:4c:51:d9:74:9b:a4:3f:cc:16:ee:4a:b1:b9:87:11:
         ec:4a:d3:f1:f9:dc:95:f4:ff:e2:4c:6e:35:df:45:ef:90:8e:
         63:96:c9:b2:f7:57:46:f8:63:ad:7d:52:3d:3d:76:16:95:d3:
         07:6e:32:36:17:3d:56:4f:f0:90:6c:c3:d4:9d:9d:26:f3:ae:
         c3:ed:5b:f0:62:f3:5f:11:12:69:f3:5a:7b:0c:8e:2d:b3:de:
         ea:d0:e2:b3:97:7f:43:7c:41:ea:a0:11:8d:f3:5e:3d:f7:9a:
         87:d7:a1:94:4b:bb:ec:ef:f2:39:ed:7b:95:11:6e:02:31:60:
         24:51:04:00:de:1b:24:9b:7a:35:9b:05:2e:5c:3b:46:7f:c9:
         52:cc:bd:70:e1:62:15:2d:7c:65:3b:e2:8b:30:91:aa:d9:99:
         9f:32:ca:d1:97:db:13:fd:ab:2f:76:8a:0f:37:67:a8:f5:2c:
         55:eb:df:a4:72:d6:35:2f:ba:df:10:b8:a3:ad:4e:e2:8b:74:
         d9:b7:12:5c
-----BEGIN CERTIFICATE-----
MIID6TCCAtGgAwIBAgIBAzANBgkqhkiG9w0BAQUFADB6MRMwEQYKCZImiZPyLGQB
GRYDb3JnMRYwFAYKCZImiZPyLGQBGRYGc2ltcGxlMRMwEQYDVQQKDApTaW1wbGUg
SW5jMRowGAYDVQQLDBFTaW1wbGUgU2lnbmluZyBDQTEaMBgGA1UEAwwRU2ltcGxl
IFNpZ25pbmcgQ0EwHhcNMjIwNTA2MDYzOTExWhcNMjQwNTA1MDYzOTExWjBbMRMw
EQYKCZImiZPyLGQBGRYDb3JnMRYwFAYKCZImiZPyLGQBGRYGc2ltcGxlMRMwEQYD
VQQKDApTaW1wbGUgSW5jMRcwFQYDVQQDDA53d3cuc2ltcGxlLm9yZzCCASIwDQYJ
KoZIhvcNAQEBBQADggEPADCCAQoCggEBALlaI0G8R7rggZtRTDnC/DjdrNbfHvZS
2psGYgfmkAIbEjmAFyOYohmwCHy/gPBzVdj5B/fFKNYniXlnwWPT5nq0Hq0B85lu
g6izUeFTcpJ8UL6hkiOCOcu6VWftCWGMJEu+AJ1764Ae/IZilHDXgslnemCoD0Zl
3NJJMAJCwagCy7fWcBai6TE05jR9fdch1den/X7OBwiqe9ZxzTDT4ZTRfvVONwOA
qCGisy4ACIub8Ky8wiD7fEoLmi2HmF51zqXi/hJHlXyXuPQ7hpsEK1LJY6C91kcR
2nJjB0OUS0+KoqeDhQsmFzT/+ZUAXhMozyEMDHId7R8OEVYLDfhfpisCAwEAAaOB
mDCBlTAOBgNVHQ8BAf8EBAMCBaAwCQYDVR0TBAIwADAdBgNVHSUEFjAUBggrBgEF
BQcDAQYIKwYBBQUHAwIwHQYDVR0OBBYEFLuYWxckdXNzIxxNEw+FQ9+xO7ANMB8G
A1UdIwQYMBaAFOGdSZs4e4iDeQoUCGpWLAIFd6aAMBkGA1UdEQQSMBCCDnd3dy5z
aW1wbGUub3JnMA0GCSqGSIb3DQEBBQUAA4IBAQBj5YFWWHT7LPoq8iiDcDmPLIYB
wPmFWTDO4aq312E5mI8eAaKZKBSxDlRqW0uCihelea9yP0g7Q9xMUdl0m6Q/zBbu
SrG5hxHsStPx+dyV9P/iTG4130XvkI5jlsmy91dG+GOtfVI9PXYWldMHbjI2Fz1W
T/CQbMPUnZ0m867D7VvwYvNfERJp81p7DI4ts97q0OKzl39DfEHqoBGN814995qH
16GUS7vs7/I57XuVEW4CMWAkUQQA3hskm3o1mwUuXDtGf8lSzL1w4WIVLXxlO+KL
MJGq2ZmfMsrRl9sT/asvdooPN2eo9SxV69+kctY1L7rfELijrU7ii3TZtxJc
-----END CERTIFICATE-----
