Certificate:
    Data:
        Version: 3 (0x2)
        Serial Number: 2 (0x2)
        Signature Algorithm: sha1WithRSAEncryption
        Issuer: DC=org, DC=simple, O=Simple Inc, OU=Simple Root CA, CN=Simple Root CA
        Validity
            Not Before: May  6 07:18:22 2022 GMT
            Not After : May  5 07:18:22 2032 GMT
        Subject: DC=org, DC=simple, O=Simple Inc, OU=Simple Signing CA, CN=Simple Signing CA
        Subject Public Key Info:
            Public Key Algorithm: rsaEncryption
                RSA Public-Key: (2048 bit)
                Modulus:
                    00:b9:d0:f2:48:d6:29:8a:ee:b1:2a:73:f2:cd:30:
                    2c:bf:15:ae:2a:08:78:30:fd:aa:60:6b:01:a3:a6:
                    cc:8b:3f:20:7f:d6:ba:f6:5f:68:04:6c:3d:42:0e:
                    eb:b0:f2:94:4f:17:bb:9d:14:83:5e:9b:1a:dc:66:
                    d3:e9:ba:5c:65:e5:91:9a:2b:18:fd:ce:99:4a:29:
                    46:5f:61:a3:57:86:2d:a1:98:26:ed:d6:aa:71:3c:
                    eb:de:64:35:0d:f9:a3:ac:55:9a:3e:39:c5:8e:00:
                    da:65:c8:ab:b7:0a:ca:d2:3f:1f:5c:c9:02:be:e7:
                    8f:34:5d:23:9a:5a:db:fa:f2:a5:2e:9f:33:11:bc:
                    76:ea:d9:e7:35:6a:c6:a1:c0:1a:6b:1e:a2:64:c6:
                    d9:ed:45:7a:de:53:8f:ca:e4:8d:33:ac:a8:49:56:
                    e1:11:42:42:1a:43:32:43:b5:ce:3e:93:1d:e1:5e:
                    eb:72:3e:8f:2b:76:30:25:a9:66:d3:15:07:5b:23:
                    01:5f:d4:83:6d:2f:7e:3c:fa:ec:f9:6e:f5:3a:fb:
                    90:21:e7:1f:42:f8:ea:88:58:94:49:22:60:8e:17:
                    e3:55:c4:0e:67:3e:0d:c6:9c:d4:6e:f4:15:f4:48:
                    69:4a:65:7e:d2:f6:b0:07:19:65:c5:24:e7:c4:73:
                    90:ff
                Exponent: 65537 (0x10001)
        X509v3 extensions:
            X509v3 Key Usage: critical
                Certificate Sign, CRL Sign
            X509v3 Basic Constraints: critical
                CA:TRUE, pathlen:0
            X509v3 Subject Key Identifier: 
                04:C4:5A:60:39:34:40:7F:F8:CB:73:78:B8:CB:65:6D:86:1F:D5:E2
            X509v3 Authority Key Identifier: 
                keyid:B6:95:8C:E4:5E:50:EF:9E:06:2F:D4:0B:69:DD:2F:84:A1:49:24:9F

    Signature Algorithm: sha1WithRSAEncryption
         8e:4a:d0:8b:7c:e1:90:58:17:82:bc:06:18:e0:17:ea:22:e1:
         04:f7:d9:f3:63:b3:99:d0:08:3a:0d:17:f4:66:0a:82:8e:3c:
         65:57:47:7a:d3:1f:a6:17:1e:ef:be:0c:9c:cc:da:20:0f:bc:
         62:d6:ec:d7:b8:87:b6:93:ad:29:30:1c:d3:98:ab:0f:66:dc:
         28:69:dd:59:e7:a7:5f:4d:88:c3:b4:92:86:43:f1:a9:6a:64:
         91:be:4e:cb:5a:3b:32:71:17:9d:65:42:a4:37:c0:01:11:84:
         b7:24:b8:c1:1f:3d:92:da:1e:2d:ea:6e:74:bc:02:43:15:1a:
         c8:52:4f:10:d8:bc:ce:76:fd:ae:a0:35:09:b8:de:5f:8d:f0:
         24:3c:82:28:87:fa:9b:76:5a:e7:19:5b:c0:f6:f9:71:c9:5d:
         8f:66:7a:2d:7a:a6:a3:5d:db:09:74:fc:11:5c:50:7f:f7:e1:
         e2:df:51:9c:6b:a7:16:47:8a:87:ee:ab:22:0d:f5:e5:22:07:
         19:ac:cf:ea:d1:55:ab:ea:5c:e2:57:6f:59:8b:6f:04:92:e4:
         28:a3:b9:62:1a:72:21:ef:58:e9:eb:d6:8f:55:aa:82:88:16:
         ee:42:fe:aa:64:8c:33:d2:8c:0d:d8:ea:4c:d7:d6:4b:9d:c4:
         c1:6e:9e:dc
-----BEGIN CERTIFICATE-----
MIIDzzCCAregAwIBAgIBAjANBgkqhkiG9w0BAQUFADB0MRMwEQYKCZImiZPyLGQB
GRYDb3JnMRYwFAYKCZImiZPyLGQBGRYGc2ltcGxlMRMwEQYDVQQKDApTaW1wbGUg
SW5jMRcwFQYDVQQLDA5TaW1wbGUgUm9vdCBDQTEXMBUGA1UEAwwOU2ltcGxlIFJv
b3QgQ0EwHhcNMjIwNTA2MDcxODIyWhcNMzIwNTA1MDcxODIyWjB6MRMwEQYKCZIm
iZPyLGQBGRYDb3JnMRYwFAYKCZImiZPyLGQBGRYGc2ltcGxlMRMwEQYDVQQKDApT
aW1wbGUgSW5jMRowGAYDVQQLDBFTaW1wbGUgU2lnbmluZyBDQTEaMBgGA1UEAwwR
U2ltcGxlIFNpZ25pbmcgQ0EwggEiMA0GCSqGSIb3DQEBAQUAA4IBDwAwggEKAoIB
AQC50PJI1imK7rEqc/LNMCy/Fa4qCHgw/apgawGjpsyLPyB/1rr2X2gEbD1CDuuw
8pRPF7udFINemxrcZtPpulxl5ZGaKxj9zplKKUZfYaNXhi2hmCbt1qpxPOveZDUN
+aOsVZo+OcWOANplyKu3CsrSPx9cyQK+5480XSOaWtv68qUunzMRvHbq2ec1asah
wBprHqJkxtntRXreU4/K5I0zrKhJVuERQkIaQzJDtc4+kx3hXutyPo8rdjAlqWbT
FQdbIwFf1INtL348+uz5bvU6+5Ah5x9C+OqIWJRJImCOF+NVxA5nPg3GnNRu9BX0
SGlKZX7S9rAHGWXFJOfEc5D/AgMBAAGjZjBkMA4GA1UdDwEB/wQEAwIBBjASBgNV
HRMBAf8ECDAGAQH/AgEAMB0GA1UdDgQWBBQExFpgOTRAf/jLc3i4y2Vthh/V4jAf
BgNVHSMEGDAWgBS2lYzkXlDvngYv1Atp3S+EoUkknzANBgkqhkiG9w0BAQUFAAOC
AQEAjkrQi3zhkFgXgrwGGOAX6iLhBPfZ82OzmdAIOg0X9GYKgo48ZVdHetMfphce
774MnMzaIA+8Ytbs17iHtpOtKTAc05irD2bcKGndWeenX02Iw7SShkPxqWpkkb5O
y1o7MnEXnWVCpDfAARGEtyS4wR89ktoeLepudLwCQxUayFJPENi8znb9rqA1Cbje
X43wJDyCKIf6m3Za5xlbwPb5ccldj2Z6LXqmo13bCXT8EVxQf/fh4t9RnGunFkeK
h+6rIg315SIHGazP6tFVq+pc4ldvWYtvBJLkKKO5YhpyIe9Y6evWj1WqgogW7kL+
qmSMM9KMDdjqTNfWS53EwW6e3A==
-----END CERTIFICATE-----
