Certificate:
    Data:
        Version: 3 (0x2)
        Serial Number: 2 (0x2)
        Signature Algorithm: sha1WithRSAEncryption
        Issuer: DC=org, DC=simple, O=Simple Inc, OU=Simple Root CA, CN=Simple Root CA
        Validity
            Not Before: May  6 06:05:43 2022 GMT
            Not After : May  5 06:05:43 2032 GMT
        Subject: DC=org, DC=simple, O=Simple Inc, OU=Simple Signing CA, CN=Simple Signing CA
        Subject Public Key Info:
            Public Key Algorithm: rsaEncryption
                RSA Public-Key: (2048 bit)
                Modulus:
                    00:d7:54:c0:2d:9d:55:f9:60:f1:41:cd:39:aa:cd:
                    90:30:e2:55:06:66:c1:6f:3d:7d:4a:93:0e:e4:d5:
                    cf:9f:bc:30:d8:f2:fd:63:1d:58:97:c2:e5:fc:c6:
                    0d:3e:da:3a:f5:07:31:9f:77:48:49:9d:16:40:ea:
                    86:7d:d2:71:3c:99:6d:3d:16:1b:d0:96:2c:82:ed:
                    aa:b7:9f:a5:b6:7f:8c:dc:5a:13:af:fc:d7:45:8e:
                    6b:ca:24:2a:61:1f:60:ed:fc:9c:0d:45:1f:da:0a:
                    c9:99:c2:22:59:f4:c2:7a:5d:1f:ca:51:71:2a:ec:
                    49:8a:e2:11:26:86:94:56:ed:80:22:60:68:1d:65:
                    02:5a:1d:4d:6b:ff:13:ea:7b:06:34:02:b4:cd:b7:
                    53:59:85:b0:1b:87:f7:2b:2a:10:c9:47:f8:88:8d:
                    15:80:7e:c8:1a:29:eb:62:74:da:39:69:40:02:75:
                    1f:20:38:7d:5a:53:76:67:bf:7b:70:3f:3f:58:07:
                    5c:61:d0:3a:3a:af:46:c7:27:26:e7:e2:e9:d7:59:
                    f2:91:51:1e:2e:15:32:68:ac:8a:f3:d0:74:75:f1:
                    bf:ff:84:5b:2f:8b:40:ed:41:ec:f8:11:84:5e:03:
                    86:2e:29:b6:be:fe:ca:9b:39:73:42:0a:b0:bf:c6:
                    18:e3
                Exponent: 65537 (0x10001)
        X509v3 extensions:
            X509v3 Key Usage: critical
                Certificate Sign, CRL Sign
            X509v3 Basic Constraints: critical
                CA:TRUE, pathlen:0
            X509v3 Subject Key Identifier: 
                E1:9D:49:9B:38:7B:88:83:79:0A:14:08:6A:56:2C:02:05:77:A6:80
            X509v3 Authority Key Identifier: 
                keyid:C8:B0:0A:B5:87:92:D8:C5:9F:D4:8E:E7:22:40:9F:61:0D:E7:A4:C8

    Signature Algorithm: sha1WithRSAEncryption
         a9:b0:da:a5:f7:81:13:b0:e9:42:82:ad:7d:45:74:00:35:de:
         9f:45:1f:35:30:58:2e:e1:11:2a:6b:19:2c:cf:30:41:47:2b:
         d5:08:6b:14:ef:6c:e2:89:b9:da:c5:70:00:b0:e4:82:77:60:
         12:ce:1b:72:2d:08:a1:d4:eb:a9:58:b3:1c:7b:e6:3f:ff:d2:
         b4:bc:40:18:69:58:de:e0:86:21:34:9b:f0:df:da:03:0f:30:
         92:86:39:ba:fc:e3:5f:0f:85:db:6e:30:de:11:dc:0e:26:b6:
         80:0d:6b:0d:d7:e5:f6:a7:75:f7:50:e9:99:8a:31:78:89:79:
         38:25:4b:27:89:b7:ca:f5:ce:55:ba:b7:d5:db:09:3a:df:a2:
         3b:1b:2e:7a:64:d2:3f:4c:e2:a5:e7:2b:8a:2b:4c:2b:91:90:
         ef:d8:b4:35:55:a1:da:b4:9e:43:12:3e:6b:2e:f0:43:05:a2:
         4d:dd:08:5f:0f:82:3d:d0:ed:df:8d:df:3f:5b:d9:88:31:97:
         48:da:f0:1e:66:95:cd:0a:6a:6d:20:a0:77:e3:90:9d:64:dd:
         99:80:85:91:67:fd:a2:eb:b6:c5:bf:26:59:3c:af:25:45:d6:
         ef:de:6f:f8:5f:af:ff:f2:24:a9:26:b2:72:ed:ba:a3:29:70:
         4e:a5:fe:88
-----BEGIN CERTIFICATE-----
MIIDzzCCAregAwIBAgIBAjANBgkqhkiG9w0BAQUFADB0MRMwEQYKCZImiZPyLGQB
GRYDb3JnMRYwFAYKCZImiZPyLGQBGRYGc2ltcGxlMRMwEQYDVQQKDApTaW1wbGUg
SW5jMRcwFQYDVQQLDA5TaW1wbGUgUm9vdCBDQTEXMBUGA1UEAwwOU2ltcGxlIFJv
b3QgQ0EwHhcNMjIwNTA2MDYwNTQzWhcNMzIwNTA1MDYwNTQzWjB6MRMwEQYKCZIm
iZPyLGQBGRYDb3JnMRYwFAYKCZImiZPyLGQBGRYGc2ltcGxlMRMwEQYDVQQKDApT
aW1wbGUgSW5jMRowGAYDVQQLDBFTaW1wbGUgU2lnbmluZyBDQTEaMBgGA1UEAwwR
U2ltcGxlIFNpZ25pbmcgQ0EwggEiMA0GCSqGSIb3DQEBAQUAA4IBDwAwggEKAoIB
AQDXVMAtnVX5YPFBzTmqzZAw4lUGZsFvPX1Kkw7k1c+fvDDY8v1jHViXwuX8xg0+
2jr1BzGfd0hJnRZA6oZ90nE8mW09FhvQliyC7aq3n6W2f4zcWhOv/NdFjmvKJCph
H2Dt/JwNRR/aCsmZwiJZ9MJ6XR/KUXEq7EmK4hEmhpRW7YAiYGgdZQJaHU1r/xPq
ewY0ArTNt1NZhbAbh/crKhDJR/iIjRWAfsgaKetidNo5aUACdR8gOH1aU3Znv3tw
Pz9YB1xh0Do6r0bHJybn4unXWfKRUR4uFTJorIrz0HR18b//hFsvi0DtQez4EYRe
A4YuKba+/sqbOXNCCrC/xhjjAgMBAAGjZjBkMA4GA1UdDwEB/wQEAwIBBjASBgNV
HRMBAf8ECDAGAQH/AgEAMB0GA1UdDgQWBBThnUmbOHuIg3kKFAhqViwCBXemgDAf
BgNVHSMEGDAWgBTIsAq1h5LYxZ/UjuciQJ9hDeekyDANBgkqhkiG9w0BAQUFAAOC
AQEAqbDapfeBE7DpQoKtfUV0ADXen0UfNTBYLuERKmsZLM8wQUcr1QhrFO9s4om5
2sVwALDkgndgEs4bci0IodTrqVizHHvmP//StLxAGGlY3uCGITSb8N/aAw8wkoY5
uvzjXw+F224w3hHcDia2gA1rDdfl9qd191DpmYoxeIl5OCVLJ4m3yvXOVbq31dsJ
Ot+iOxsuemTSP0zipecriitMK5GQ79i0NVWh2rSeQxI+ay7wQwWiTd0IXw+CPdDt
343fP1vZiDGXSNrwHmaVzQpqbSCgd+OQnWTdmYCFkWf9ouu2xb8mWTyvJUXW795v
+F+v//IkqSaycu26oylwTqX+iA==
-----END CERTIFICATE-----
